; Function Attrs: mustprogress nofree norecurse nosync nounwind willreturn memory(argmem: read) uwtable
define hidden noundef zeroext i1 @_ZNK19OpenColorIO_v2_4dev10CTFVersionleERKS0_(ptr noundef nonnull readonly align 4 dereferenceable(12) %this, ptr noundef nonnull readonly align 4 dereferenceable(12) %rhs) local_unnamed_addr #7 align 2 {
entry:
  %cmp.i = icmp eq ptr %this, %rhs
  br i1 %cmp.i, label %return, label %if.end.i

if.end.i:                                         ; preds = %entry
  %0 = load i32, ptr %this, align 4
  %1 = load i32, ptr %rhs, align 4
  %cmp3.i = icmp eq i32 %0, %1
  br i1 %cmp3.i, label %land.lhs.true.i, label %if.end.i3

land.lhs.true.i:                                  ; preds = %if.end.i
  %m_minor.i = getelementptr inbounds i8, ptr %this, i64 4
  %2 = load i32, ptr %m_minor.i, align 4
  %m_minor4.i = getelementptr inbounds i8, ptr %rhs, i64 4
  %3 = load i32, ptr %m_minor4.i, align 4
  %cmp5.i = icmp eq i32 %2, %3
  br i1 %cmp5.i, label %_ZNK19OpenColorIO_v2_4dev10CTFVersioneqERKS0_.exit, label %if.end.i3

_ZNK19OpenColorIO_v2_4dev10CTFVersioneqERKS0_.exit: ; preds = %land.lhs.true.i
  %m_revision.i = getelementptr inbounds i8, ptr %this, i64 8
  %4 = load i32, ptr %m_revision.i, align 4
  %m_revision6.i = getelementptr inbounds i8, ptr %rhs, i64 8
  %5 = load i32, ptr %m_revision6.i, align 4
  %cmp7.i = icmp eq i32 %4, %5
  %cmp3.i4 = icmp ult i32 %0, %1
  %or.cond = or i1 %cmp7.i, %cmp3.i4
  br i1 %or.cond, label %return, label %if.else.i

if.end.i3:                                        ; preds = %if.end.i, %land.lhs.true.i
  %cmp3.i4.old = icmp ult i32 %0, %1
  br i1 %cmp3.i4.old, label %return, label %if.else.i

if.else.i:                                        ; preds = %_ZNK19OpenColorIO_v2_4dev10CTFVersioneqERKS0_.exit, %if.end.i3
  %cmp7.i5 = icmp ugt i32 %0, %1
  br i1 %cmp7.i5, label %return, label %if.else9.i

if.else9.i:                                       ; preds = %if.else.i
  %m_minor.i6 = getelementptr inbounds i8, ptr %this, i64 4
  %6 = load i32, ptr %m_minor.i6, align 4
  %m_minor10.i = getelementptr inbounds i8, ptr %rhs, i64 4
  %7 = load i32, ptr %m_minor10.i, align 4
  %cmp11.i = icmp ult i32 %6, %7
  br i1 %cmp11.i, label %return, label %if.else13.i

if.else13.i:                                      ; preds = %if.else9.i
  %cmp16.i = icmp ugt i32 %6, %7
  br i1 %cmp16.i, label %return, label %if.else18.i

if.else18.i:                                      ; preds = %if.else13.i
  %m_revision.i7 = getelementptr inbounds i8, ptr %this, i64 8
  %8 = load i32, ptr %m_revision.i7, align 4
  %m_revision19.i = getelementptr inbounds i8, ptr %rhs, i64 8
  %9 = load i32, ptr %m_revision19.i, align 4
  %cmp20.i = icmp ult i32 %8, %9
  br label %return

return:                                           ; preds = %entry, %if.else18.i, %if.else13.i, %if.else9.i, %if.else.i, %if.end.i3, %_ZNK19OpenColorIO_v2_4dev10CTFVersioneqERKS0_.exit
  %retval.0 = phi i1 [ true, %_ZNK19OpenColorIO_v2_4dev10CTFVersioneqERKS0_.exit ], [ true, %if.end.i3 ], [ false, %if.else.i ], [ true, %if.else9.i ], [ false, %if.else13.i ], [ %cmp20.i, %if.else18.i ], [ true, %entry ]
  ret i1 %retval.0
}